(dp1
S'targetDir'
p2
VC:\u005cUsers\u005cMarco\u005cMusic
p3
sS'settings'
p4
(dp5
S'useLastFM'
p6
I01
sS'overwriteTags'
p7
I00
ssS'artists'
p8
c__builtin__
set
p9
((lp10
Vrome fortune
p11
aV123mrk
p12
aVantwon x lil ugly mane
p13
aVjahlil beats & crmc
p14
aVlunice
p15
aVchindamo
p16
aVmoodswings
p17
aVtotally enormous extinct dinosaurs x anna lunoe
p18
aVsbtrkt ft. ezra koenig
p19
aVpartynextdoor
p20
aVdrake x mary j.blige
p21
aVrinse fm
p22
aVbatgang
p23
aVphazz
p24
aVjoey badass
p25
aVpeewee longway
p26
aVfreddie gibbs & madlib
p27
aVa-trak & lex luger
p28
aVvertigo
p29
aVrabit ft. riko dan
p30
aVariel
p31
aVkumisolo
p32
aV50 cent
p33
aVbasenji
p34
aVasap rocky
p35
aVfoxes in fiction
p36
aVamerie
p37
aVmiles davis
p38
aVtory lanez
p39
aV$uicideboy$ x bones
p40
aVmick jenkins
p41
aVfuture brown ft. tink, 3d na'tee
p42
aVasap ferg
p43
aVshlohmo & jeremih
p44
aV20syl
p45
aVastronomar & kid kamillion
p46
aVbambounou
p47
aVeprom
p48
aVmiami mais
p49
aVshlohmo
p50
aVjonah cruzz
p51
aVellie herring
p52
aVmigos, sy ari da kid, que, k camp, kidd kidd, verse simmonds, jose guapo,
p53
aVaction bronson & capital steez
p54
aVa tribe called quest
p55
aV2pac
p56
aVswindle
p57
aVkulakostas
p58
aVstwo
p59
aVflavour
p60
aVa$ap ferg
p61
aVnina simone
p62
aVmurlo
p63
aVantwon
p64
aVdrip
p65
aVfkj
p66
aVet aliae
p67
aVlate ride
p68
aVsango
p69
aVoctave minds
p70
aVtiga feat pusha t
p71
aV8tm
p72
aVkero kero bonito
p73
aVazizi gibson
p74
aVfind a way
p75
atRp76
s.